target datalayout = "e-m:e-p270:32:32-p271:32:32-p272:64:64-i64:64-i128:128-f80:128-n8:16:32:64-S128"
target triple = "x86_64-pc-linux-gnu"

%struct.strvec = type { ptr, i64, i64 }
%struct.maintenance_run_opts = type { i32, i32, i32, i32 }
%struct.child_process = type { %struct.strvec, %struct.strvec, i32, i32, i64, ptr, ptr, i32, i32, i32, ptr, i16, ptr }
%struct.string_list = type { ptr, i64, i64, i8, ptr }
%struct.hashmap_entry = type { ptr, i32 }
%struct.remote = type { %struct.hashmap_entry, ptr, i32, i32, ptr, %struct.strvec, %struct.strvec, %struct.refspec, %struct.refspec, i32, i32, i32, i32, i32, ptr, ptr, ptr, ptr, %struct.string_list, i32, ptr }
%struct.refspec = type { ptr, i32, i32, i32 }

@.str.98 = private unnamed_addr constant [8 x i8] c"--prune\00", align 1
@.str.128 = private unnamed_addr constant [6 x i8] c"fetch\00", align 1
@.str.129 = private unnamed_addr constant [11 x i8] c"--prefetch\00", align 1
@.str.130 = private unnamed_addr constant [10 x i8] c"--no-tags\00", align 1
@.str.131 = private unnamed_addr constant [22 x i8] c"--no-write-fetch-head\00", align 1
@.str.132 = private unnamed_addr constant [24 x i8] c"--recurse-submodules=no\00", align 1
@.str.133 = private unnamed_addr constant [8 x i8] c"--quiet\00", align 1

; Function Attrs: nounwind uwtable
define internal i32 @fetch_remote(ptr noundef %0, ptr noundef %1) #0 {
  %3 = alloca i32, align 4
  %4 = alloca ptr, align 8
  %5 = alloca ptr, align 8
  %6 = alloca ptr, align 8
  %7 = alloca %struct.child_process, align 8
  %8 = alloca i32, align 4
  store ptr %0, ptr %4, align 8, !tbaa !171
  store ptr %1, ptr %5, align 8, !tbaa !54
  call void @llvm.lifetime.start.p0(i64 8, ptr %6) #11
  %9 = load ptr, ptr %5, align 8, !tbaa !54
  store ptr %9, ptr %6, align 8, !tbaa !109
  call void @llvm.lifetime.start.p0(i64 120, ptr %7) #11
  call void @llvm.memcpy.p0.p0.i64(ptr align 8 %7, ptr align 8 @__const.fetch_remote.child, i64 120, i1 false)
  %10 = load ptr, ptr %4, align 8, !tbaa !171
  %11 = getelementptr inbounds nuw %struct.remote, ptr %10, i32 0, i32 10
  %12 = load i32, ptr %11, align 4, !tbaa !173
  %13 = icmp ne i32 %12, 0
  br i1 %13, label %14, label %15

14:                                               ; preds = %2
  store i32 0, ptr %3, align 4
  store i32 1, ptr %8, align 4
  br label %37

15:                                               ; preds = %2
  %16 = getelementptr inbounds nuw %struct.child_process, ptr %7, i32 0, i32 11
  %17 = load i16, ptr %16, align 8
  %18 = and i16 %17, -9
  %19 = or i16 %18, 8
  store i16 %19, ptr %16, align 8
  %20 = getelementptr inbounds nuw %struct.child_process, ptr %7, i32 0, i32 0
  %21 = load ptr, ptr %4, align 8, !tbaa !171
  %22 = getelementptr inbounds nuw %struct.remote, ptr %21, i32 0, i32 1
  %23 = load ptr, ptr %22, align 8, !tbaa !179
  call void (ptr, ...) @strvec_pushl(ptr noundef %20, ptr noundef @.str.128, ptr noundef %23, ptr noundef @.str.129, ptr noundef @.str.98, ptr noundef @.str.130, ptr noundef @.str.131, ptr noundef @.str.132, ptr noundef null)
  %24 = load ptr, ptr %6, align 8, !tbaa !109
  %25 = getelementptr inbounds nuw %struct.maintenance_run_opts, ptr %24, i32 0, i32 2
  %26 = load i32, ptr %25, align 4, !tbaa !130
  %27 = icmp ne i32 %26, 0
  br i1 %27, label %28, label %31

28:                                               ; preds = %15
  %29 = getelementptr inbounds nuw %struct.child_process, ptr %7, i32 0, i32 0
  %30 = call ptr @strvec_push(ptr noundef %29, ptr noundef @.str.133)
  br label %31

31:                                               ; preds = %28, %15
  %32 = call i32 @run_command(ptr noundef %7)
  %33 = icmp ne i32 %32, 0
  %34 = xor i1 %33, true
  %35 = xor i1 %34, true
  %36 = zext i1 %35 to i32
  store i32 %36, ptr %3, align 4
  store i32 1, ptr %8, align 4
  br label %37

37:                                               ; preds = %31, %14
  call void @llvm.lifetime.end.p0(i64 120, ptr %7) #11
  call void @llvm.lifetime.end.p0(i64 8, ptr %6) #11
  %38 = load i32, ptr %3, align 4
  ret i32 %38
}