; Function Attrs: nounwind uwtable
define internal range(i32 0, 2) i32 @fetch_remote(ptr noundef readonly captures(none) %0, ptr noundef readonly captures(none) %1) #0 {
  %3 = alloca %struct.child_process, align 8
  call void @llvm.lifetime.start.p0(i64 120, ptr nonnull %3) #21
  call void @llvm.memcpy.p0.p0.i64(ptr noundef nonnull align 8 dereferenceable(120) %3, ptr noundef nonnull align 8 dereferenceable(120) @__const.schtasks_remove_task.child, i64 120, i1 false)
  %4 = getelementptr inbounds nuw i8, ptr %0, i64 140
  %5 = load i32, ptr %4, align 4, !tbaa !155
  %.not = icmp eq i32 %5, 0
  br i1 %.not, label %6, label %18

6:                                                ; preds = %2
  %7 = getelementptr inbounds nuw i8, ptr %3, i64 104
  store i16 8, ptr %7, align 8
  %8 = getelementptr inbounds nuw i8, ptr %0, i64 16
  %9 = load ptr, ptr %8, align 8, !tbaa !161
  call void (ptr, ...) @strvec_pushl(ptr noundef nonnull %3, ptr noundef nonnull @.str.128, ptr noundef %9, ptr noundef nonnull @.str.129, ptr noundef nonnull @.str.98, ptr noundef nonnull @.str.130, ptr noundef nonnull @.str.131, ptr noundef nonnull @.str.132, ptr noundef null) #21
  %10 = getelementptr inbounds nuw i8, ptr %1, i64 8
  %11 = load i32, ptr %10, align 4, !tbaa !115
  %.not4 = icmp eq i32 %11, 0
  br i1 %.not4, label %14, label %12

12:                                               ; preds = %6
  %13 = call ptr @strvec_push(ptr noundef nonnull %3, ptr noundef nonnull @.str.133) #21
  br label %14

14:                                               ; preds = %12, %6
  %15 = call i32 @run_command(ptr noundef nonnull %3) #21
  %16 = icmp ne i32 %15, 0
  %17 = zext i1 %16 to i32
  br label %18

18:                                               ; preds = %2, %14
  %.0 = phi i32 [ %17, %14 ], [ 0, %2 ]
  call void @llvm.lifetime.end.p0(i64 120, ptr nonnull %3) #21
  ret i32 %.0
}